; Function Attrs: mustprogress nofree norecurse nosync nounwind willreturn memory(argmem: readwrite) uwtable
define void @_ZN6google8protobuf2io9Tokenizer19set_report_newlinesEb(ptr noundef nonnull align 8 captures(none) dereferenceable(192) initializes((191, 192)) %this, i1 noundef zeroext %report) local_unnamed_addr #11 align 2 {
entry:
  %frombool = zext i1 %report to i8
  %report_newlines_ = getelementptr inbounds nuw i8, ptr %this, i64 191
  store i8 %frombool, ptr %report_newlines_, align 1
  %report_whitespace_ = getelementptr inbounds nuw i8, ptr %this, i64 190
  %0 = load i8, ptr %report_whitespace_, align 2
  %1 = and i8 %0, 1
  %2 = or i8 %1, %frombool
  store i8 %2, ptr %report_whitespace_, align 2
  ret void
}